
a.elf:     file format elf32-avr

Sections:
Idx Name          Size      VMA       LMA       File off  Algn
  0 .data         00000002  00800100  00000282  00000316  2**0
                  CONTENTS, ALLOC, LOAD, DATA
  1 .text         00000282  00000000  00000000  00000094  2**1
                  CONTENTS, ALLOC, LOAD, READONLY, CODE
  2 .bss          00000008  00800102  00800102  00000318  2**0
                  ALLOC
  3 .comment      00000030  00000000  00000000  00000318  2**0
                  CONTENTS, READONLY

Disassembly of section .text:

00000000 <__vectors>:
   0:	0c 94 34 00 	jmp	0x68	; 0x68 <__ctors_end>
   4:	0c 94 51 00 	jmp	0xa2	; 0xa2 <__bad_interrupt>
   8:	0c 94 51 00 	jmp	0xa2	; 0xa2 <__bad_interrupt>
   c:	0c 94 51 00 	jmp	0xa2	; 0xa2 <__bad_interrupt>
  10:	0c 94 51 00 	jmp	0xa2	; 0xa2 <__bad_interrupt>
  14:	0c 94 51 00 	jmp	0xa2	; 0xa2 <__bad_interrupt>
  18:	0c 94 51 00 	jmp	0xa2	; 0xa2 <__bad_interrupt>
  1c:	0c 94 51 00 	jmp	0xa2	; 0xa2 <__bad_interrupt>
  20:	0c 94 51 00 	jmp	0xa2	; 0xa2 <__bad_interrupt>
  24:	0c 94 51 00 	jmp	0xa2	; 0xa2 <__bad_interrupt>
  28:	0c 94 51 00 	jmp	0xa2	; 0xa2 <__bad_interrupt>
  2c:	0c 94 51 00 	jmp	0xa2	; 0xa2 <__bad_interrupt>
  30:	0c 94 51 00 	jmp	0xa2	; 0xa2 <__bad_interrupt>
  34:	0c 94 51 00 	jmp	0xa2	; 0xa2 <__bad_interrupt>
  38:	0c 94 51 00 	jmp	0xa2	; 0xa2 <__bad_interrupt>
  3c:	0c 94 51 00 	jmp	0xa2	; 0xa2 <__bad_interrupt>
  40:	0c 94 53 00 	jmp	0xa6	; 0xa6 <__vector_16>
  44:	0c 94 51 00 	jmp	0xa2	; 0xa2 <__bad_interrupt>
  48:	0c 94 51 00 	jmp	0xa2	; 0xa2 <__bad_interrupt>
  4c:	0c 94 51 00 	jmp	0xa2	; 0xa2 <__bad_interrupt>
  50:	0c 94 51 00 	jmp	0xa2	; 0xa2 <__bad_interrupt>
  54:	0c 94 51 00 	jmp	0xa2	; 0xa2 <__bad_interrupt>
  58:	0c 94 51 00 	jmp	0xa2	; 0xa2 <__bad_interrupt>
  5c:	0c 94 51 00 	jmp	0xa2	; 0xa2 <__bad_interrupt>
  60:	0c 94 51 00 	jmp	0xa2	; 0xa2 <__bad_interrupt>
  64:	0c 94 51 00 	jmp	0xa2	; 0xa2 <__bad_interrupt>

00000068 <__ctors_end>:
  68:	11 24       	eor	r1, r1
  6a:	1f be       	out	0x3f, r1	; 63
  6c:	cf ef       	ldi	r28, 0xFF	; 255
  6e:	d8 e0       	ldi	r29, 0x08	; 8
  70:	de bf       	out	0x3e, r29	; 62
  72:	cd bf       	out	0x3d, r28	; 61

00000074 <__do_copy_data>:
  74:	11 e0       	ldi	r17, 0x01	; 1
  76:	a0 e0       	ldi	r26, 0x00	; 0
  78:	b1 e0       	ldi	r27, 0x01	; 1
  7a:	e2 e8       	ldi	r30, 0x82	; 130
  7c:	f2 e0       	ldi	r31, 0x02	; 2
  7e:	02 c0       	rjmp	.+4      	; 0x84 <__do_copy_data+0x10>
  80:	05 90       	lpm	r0, Z+
  82:	0d 92       	st	X+, r0
  84:	a2 30       	cpi	r26, 0x02	; 2
  86:	b1 07       	cpc	r27, r17
  88:	d9 f7       	brne	.-10     	; 0x80 <__do_copy_data+0xc>

0000008a <__do_clear_bss>:
  8a:	21 e0       	ldi	r18, 0x01	; 1
  8c:	a2 e0       	ldi	r26, 0x02	; 2
  8e:	b1 e0       	ldi	r27, 0x01	; 1
  90:	01 c0       	rjmp	.+2      	; 0x94 <.do_clear_bss_start>

00000092 <.do_clear_bss_loop>:
  92:	1d 92       	st	X+, r1

00000094 <.do_clear_bss_start>:
  94:	aa 30       	cpi	r26, 0x0A	; 10
  96:	b2 07       	cpc	r27, r18
  98:	e1 f7       	brne	.-8      	; 0x92 <.do_clear_bss_loop>
  9a:	0e 94 0f 01 	call	0x21e	; 0x21e <main>
  9e:	0c 94 3f 01 	jmp	0x27e	; 0x27e <_exit>

000000a2 <__bad_interrupt>:
  a2:	0c 94 00 00 	jmp	0	; 0x0 <__vectors>

000000a6 <__vector_16>:
  a6:	1f 92       	push	r1
  a8:	0f 92       	push	r0
  aa:	0f b6       	in	r0, 0x3f	; 63
  ac:	0f 92       	push	r0
  ae:	11 24       	eor	r1, r1
  b0:	8f 93       	push	r24
  b2:	81 e0       	ldi	r24, 0x01	; 1
  b4:	80 93 02 01 	sts	0x0102, r24
  b8:	8f 91       	pop	r24
  ba:	0f 90       	pop	r0
  bc:	0f be       	out	0x3f, r0	; 63
  be:	0f 90       	pop	r0
  c0:	1f 90       	pop	r1
  c2:	18 95       	reti

000000c4 <receive_packet>:
  c4:	5a 98       	cbi	0x0b, 2	; 11
  c6:	8f e0       	ldi	r24, 0x0F	; 15
  c8:	97 e2       	ldi	r25, 0x27	; 39
  ca:	01 97       	sbiw	r24, 0x01	; 1
  cc:	f1 f7       	brne	.-4      	; 0xca <receive_packet+0x6>
  ce:	00 c0       	rjmp	.+0      	; 0xd0 <receive_packet+0xc>
  d0:	00 00       	nop
  d2:	80 e1       	ldi	r24, 0x10	; 16
  d4:	80 93 c1 00 	sts	0x00C1, r24
  d8:	80 91 c0 00 	lds	r24, 0x00C0
  dc:	87 ff       	sbrs	r24, 7
  de:	fc cf       	rjmp	.-8      	; 0xd8 <receive_packet+0x14>
  e0:	80 91 c6 00 	lds	r24, 0x00C6
  e4:	80 93 05 01 	sts	0x0105, r24
  e8:	10 92 02 01 	sts	0x0102, r1
  ec:	16 bc       	out	0x26, r1	; 38
  ee:	85 e0       	ldi	r24, 0x05	; 5
  f0:	85 bd       	out	0x25, r24	; 37
  f2:	90 91 02 01 	lds	r25, 0x0102
  f6:	21 e0       	ldi	r18, 0x01	; 1
  f8:	02 c0       	rjmp	.+4      	; 0xfe <receive_packet+0x3a>
  fa:	91 30       	cpi	r25, 0x01	; 1
  fc:	39 f1       	breq	.+78     	; 0x14c <receive_packet+0x88>
  fe:	80 91 c0 00 	lds	r24, 0x00C0
 102:	87 ff       	sbrs	r24, 7
 104:	fa cf       	rjmp	.-12     	; 0xfa <receive_packet+0x36>
 106:	80 91 c6 00 	lds	r24, 0x00C6
 10a:	e2 2f       	mov	r30, r18
 10c:	f0 e0       	ldi	r31, 0x00	; 0
 10e:	eb 5f       	subi	r30, 0xFB	; 251
 110:	fe 4f       	sbci	r31, 0xFE	; 254
 112:	80 83       	st	Z, r24
 114:	2f 5f       	subi	r18, 0xFF	; 255
 116:	25 30       	cpi	r18, 0x05	; 5
 118:	91 f7       	brne	.-28     	; 0xfe <receive_packet+0x3a>
 11a:	15 bc       	out	0x25, r1	; 37
 11c:	10 92 c1 00 	sts	0x00C1, r1
 120:	20 91 05 01 	lds	r18, 0x0105
 124:	30 91 06 01 	lds	r19, 0x0106
 128:	82 2f       	mov	r24, r18
 12a:	90 e0       	ldi	r25, 0x00	; 0
 12c:	83 0f       	add	r24, r19
 12e:	91 1d       	adc	r25, r1
 130:	30 91 07 01 	lds	r19, 0x0107
 134:	83 0f       	add	r24, r19
 136:	91 1d       	adc	r25, r1
 138:	30 91 08 01 	lds	r19, 0x0108
 13c:	83 0f       	add	r24, r19
 13e:	91 1d       	adc	r25, r1
 140:	90 91 09 01 	lds	r25, 0x0109
 144:	98 17       	cp	r25, r24
 146:	81 f0       	breq	.+32     	; 0x168 <receive_packet+0xa4>
 148:	80 e0       	ldi	r24, 0x00	; 0
 14a:	08 95       	ret
 14c:	15 bc       	out	0x25, r1	; 37
 14e:	8f ef       	ldi	r24, 0xFF	; 255
 150:	80 93 05 01 	sts	0x0105, r24
 154:	80 93 06 01 	sts	0x0106, r24
 158:	80 93 07 01 	sts	0x0107, r24
 15c:	80 93 08 01 	sts	0x0108, r24
 160:	80 93 09 01 	sts	0x0109, r24
 164:	80 e0       	ldi	r24, 0x00	; 0
 166:	08 95       	ret
 168:	81 e0       	ldi	r24, 0x01	; 1
 16a:	90 91 00 01 	lds	r25, 0x0100
 16e:	29 13       	cpse	r18, r25
 170:	80 e0       	ldi	r24, 0x00	; 0
 172:	81 95       	neg	r24
 174:	08 95       	ret

00000176 <send_packet>:
 176:	20 91 05 01 	lds	r18, 0x0105
 17a:	80 91 06 01 	lds	r24, 0x0106
 17e:	90 e0       	ldi	r25, 0x00	; 0
 180:	82 0f       	add	r24, r18
 182:	91 1d       	adc	r25, r1
 184:	20 91 07 01 	lds	r18, 0x0107
 188:	82 0f       	add	r24, r18
 18a:	91 1d       	adc	r25, r1
 18c:	20 91 08 01 	lds	r18, 0x0108
 190:	82 0f       	add	r24, r18
 192:	91 1d       	adc	r25, r1
 194:	80 93 09 01 	sts	0x0109, r24
 198:	5a 9a       	sbi	0x0b, 2	; 11
 19a:	8f e0       	ldi	r24, 0x0F	; 15
 19c:	97 e2       	ldi	r25, 0x27	; 39
 19e:	01 97       	sbiw	r24, 0x01	; 1
 1a0:	f1 f7       	brne	.-4      	; 0x19e <send_packet+0x28>
 1a2:	00 c0       	rjmp	.+0      	; 0x1a4 <send_packet+0x2e>
 1a4:	00 00       	nop
 1a6:	88 e0       	ldi	r24, 0x08	; 8
 1a8:	80 93 c1 00 	sts	0x00C1, r24
 1ac:	e5 e0       	ldi	r30, 0x05	; 5
 1ae:	f1 e0       	ldi	r31, 0x01	; 1
 1b0:	80 91 c0 00 	lds	r24, 0x00C0
 1b4:	85 ff       	sbrs	r24, 5
 1b6:	fc cf       	rjmp	.-8      	; 0x1b0 <send_packet+0x3a>
 1b8:	81 91       	ld	r24, Z+
 1ba:	80 93 c6 00 	sts	0x00C6, r24
 1be:	91 e0       	ldi	r25, 0x01	; 1
 1c0:	ea 30       	cpi	r30, 0x0A	; 10
 1c2:	f9 07       	cpc	r31, r25
 1c4:	a9 f7       	brne	.-22     	; 0x1b0 <send_packet+0x3a>
 1c6:	10 92 c1 00 	sts	0x00C1, r1
 1ca:	08 95       	ret

000001cc <send_registers>:
 1cc:	81 e0       	ldi	r24, 0x01	; 1
 1ce:	80 93 05 01 	sts	0x0105, r24
 1d2:	82 e3       	ldi	r24, 0x32	; 50
 1d4:	80 93 06 01 	sts	0x0106, r24
 1d8:	80 91 03 01 	lds	r24, 0x0103
 1dc:	80 93 07 01 	sts	0x0107, r24
 1e0:	80 91 04 01 	lds	r24, 0x0104
 1e4:	80 93 08 01 	sts	0x0108, r24
 1e8:	0c 94 bb 00 	jmp	0x176	; 0x176 <send_packet>

000001ec <process_packet>:
 1ec:	80 91 06 01 	lds	r24, 0x0106
 1f0:	84 31       	cpi	r24, 0x14	; 20
 1f2:	59 f0       	breq	.+22     	; 0x20a <process_packet+0x1e>
 1f4:	8e 31       	cpi	r24, 0x1E	; 30
 1f6:	19 f0       	breq	.+6      	; 0x1fe <process_packet+0x12>
 1f8:	8a 30       	cpi	r24, 0x0A	; 10
 1fa:	29 f0       	breq	.+10     	; 0x206 <process_packet+0x1a>
 1fc:	08 95       	ret
 1fe:	80 91 07 01 	lds	r24, 0x0107
 202:	80 93 00 01 	sts	0x0100, r24
 206:	0c 94 e6 00 	jmp	0x1cc	; 0x1cc <send_registers>
 20a:	80 91 07 01 	lds	r24, 0x0107
 20e:	80 93 03 01 	sts	0x0103, r24
 212:	80 91 08 01 	lds	r24, 0x0108
 216:	80 93 04 01 	sts	0x0104, r24
 21a:	0c 94 e6 00 	jmp	0x1cc	; 0x1cc <send_registers>

0000021e <main>:
 21e:	84 e0       	ldi	r24, 0x04	; 4
 220:	8a b9       	out	0x0a, r24	; 10
 222:	8f ef       	ldi	r24, 0xFF	; 255
 224:	84 b9       	out	0x04, r24	; 4
 226:	8e e0       	ldi	r24, 0x0E	; 14
 228:	80 93 c2 00 	sts	0x00C2, r24
 22c:	8c e0       	ldi	r24, 0x0C	; 12
 22e:	80 93 c4 00 	sts	0x00C4, r24
 232:	10 92 c5 00 	sts	0x00C5, r1
 236:	81 e0       	ldi	r24, 0x01	; 1
 238:	80 93 6e 00 	sts	0x006E, r24
 23c:	78 94       	sei
 23e:	83 e8       	ldi	r24, 0x83	; 131
 240:	80 93 b0 00 	sts	0x00B0, r24
 244:	81 e0       	ldi	r24, 0x01	; 1
 246:	80 93 b1 00 	sts	0x00B1, r24
 24a:	10 92 b3 00 	sts	0x00B3, r1
 24e:	06 c0       	rjmp	.+12     	; 0x25c <main+0x3e>
 250:	8f e1       	ldi	r24, 0x1F	; 31
 252:	9e e4       	ldi	r25, 0x4E	; 78
 254:	01 97       	sbiw	r24, 0x01	; 1
 256:	f1 f7       	brne	.-4      	; 0x254 <main+0x36>
 258:	00 c0       	rjmp	.+0      	; 0x25a <main+0x3c>
 25a:	00 00       	nop
 25c:	0e 94 62 00 	call	0xc4	; 0xc4 <receive_packet>
 260:	ef e1       	ldi	r30, 0x1F	; 31
 262:	fe e4       	ldi	r31, 0x4E	; 78
 264:	31 97       	sbiw	r30, 0x01	; 1
 266:	f1 f7       	brne	.-4      	; 0x264 <main+0x46>
 268:	00 c0       	rjmp	.+0      	; 0x26a <main+0x4c>
 26a:	00 00       	nop
 26c:	88 23       	and	r24, r24
 26e:	81 f3       	breq	.-32     	; 0x250 <main+0x32>
 270:	0e 94 f6 00 	call	0x1ec	; 0x1ec <process_packet>
 274:	80 91 03 01 	lds	r24, 0x0103
 278:	80 93 b3 00 	sts	0x00B3, r24
 27c:	e9 cf       	rjmp	.-46     	; 0x250 <main+0x32>

0000027e <_exit>:
 27e:	f8 94       	cli

00000280 <__stop_program>:
 280:	ff cf       	rjmp	.-2      	; 0x280 <__stop_program>
