
avr-encoder.elf:     file format elf32-avr

Sections:
Idx Name          Size      VMA       LMA       File off  Algn
  0 .data         00000002  00800100  0000037c  00000410  2**0
                  CONTENTS, ALLOC, LOAD, DATA
  1 .text         0000037c  00000000  00000000  00000094  2**1
                  CONTENTS, ALLOC, LOAD, READONLY, CODE
  2 .bss          0000000a  00800102  00800102  00000412  2**0
                  ALLOC
  3 .comment      00000030  00000000  00000000  00000412  2**0
                  CONTENTS, READONLY

Disassembly of section .text:

00000000 <__vectors>:
   0:	0c 94 34 00 	jmp	0x68	; 0x68 <__ctors_end>
   4:	0c 94 51 00 	jmp	0xa2	; 0xa2 <__bad_interrupt>
   8:	0c 94 51 00 	jmp	0xa2	; 0xa2 <__bad_interrupt>
   c:	0c 94 51 00 	jmp	0xa2	; 0xa2 <__bad_interrupt>
  10:	0c 94 51 00 	jmp	0xa2	; 0xa2 <__bad_interrupt>
  14:	0c 94 51 00 	jmp	0xa2	; 0xa2 <__bad_interrupt>
  18:	0c 94 51 00 	jmp	0xa2	; 0xa2 <__bad_interrupt>
  1c:	0c 94 51 00 	jmp	0xa2	; 0xa2 <__bad_interrupt>
  20:	0c 94 51 00 	jmp	0xa2	; 0xa2 <__bad_interrupt>
  24:	0c 94 d4 00 	jmp	0x1a8	; 0x1a8 <__vector_9>
  28:	0c 94 51 00 	jmp	0xa2	; 0xa2 <__bad_interrupt>
  2c:	0c 94 51 00 	jmp	0xa2	; 0xa2 <__bad_interrupt>
  30:	0c 94 51 00 	jmp	0xa2	; 0xa2 <__bad_interrupt>
  34:	0c 94 51 00 	jmp	0xa2	; 0xa2 <__bad_interrupt>
  38:	0c 94 51 00 	jmp	0xa2	; 0xa2 <__bad_interrupt>
  3c:	0c 94 51 00 	jmp	0xa2	; 0xa2 <__bad_interrupt>
  40:	0c 94 c5 00 	jmp	0x18a	; 0x18a <__vector_16>
  44:	0c 94 51 00 	jmp	0xa2	; 0xa2 <__bad_interrupt>
  48:	0c 94 51 00 	jmp	0xa2	; 0xa2 <__bad_interrupt>
  4c:	0c 94 51 00 	jmp	0xa2	; 0xa2 <__bad_interrupt>
  50:	0c 94 51 00 	jmp	0xa2	; 0xa2 <__bad_interrupt>
  54:	0c 94 51 00 	jmp	0xa2	; 0xa2 <__bad_interrupt>
  58:	0c 94 51 00 	jmp	0xa2	; 0xa2 <__bad_interrupt>
  5c:	0c 94 51 00 	jmp	0xa2	; 0xa2 <__bad_interrupt>
  60:	0c 94 51 00 	jmp	0xa2	; 0xa2 <__bad_interrupt>
  64:	0c 94 51 00 	jmp	0xa2	; 0xa2 <__bad_interrupt>

00000068 <__ctors_end>:
  68:	11 24       	eor	r1, r1
  6a:	1f be       	out	0x3f, r1	; 63
  6c:	cf ef       	ldi	r28, 0xFF	; 255
  6e:	d8 e0       	ldi	r29, 0x08	; 8
  70:	de bf       	out	0x3e, r29	; 62
  72:	cd bf       	out	0x3d, r28	; 61

00000074 <__do_copy_data>:
  74:	11 e0       	ldi	r17, 0x01	; 1
  76:	a0 e0       	ldi	r26, 0x00	; 0
  78:	b1 e0       	ldi	r27, 0x01	; 1
  7a:	ec e7       	ldi	r30, 0x7C	; 124
  7c:	f3 e0       	ldi	r31, 0x03	; 3
  7e:	02 c0       	rjmp	.+4      	; 0x84 <__do_copy_data+0x10>
  80:	05 90       	lpm	r0, Z+
  82:	0d 92       	st	X+, r0
  84:	a2 30       	cpi	r26, 0x02	; 2
  86:	b1 07       	cpc	r27, r17
  88:	d9 f7       	brne	.-10     	; 0x80 <__do_copy_data+0xc>

0000008a <__do_clear_bss>:
  8a:	21 e0       	ldi	r18, 0x01	; 1
  8c:	a2 e0       	ldi	r26, 0x02	; 2
  8e:	b1 e0       	ldi	r27, 0x01	; 1
  90:	01 c0       	rjmp	.+2      	; 0x94 <.do_clear_bss_start>

00000092 <.do_clear_bss_loop>:
  92:	1d 92       	st	X+, r1

00000094 <.do_clear_bss_start>:
  94:	ac 30       	cpi	r26, 0x0C	; 12
  96:	b2 07       	cpc	r27, r18
  98:	e1 f7       	brne	.-8      	; 0x92 <.do_clear_bss_loop>
  9a:	0e 94 aa 01 	call	0x354	; 0x354 <main>
  9e:	0c 94 bc 01 	jmp	0x378	; 0x378 <_exit>

000000a2 <__bad_interrupt>:
  a2:	0c 94 00 00 	jmp	0	; 0x0 <__vectors>

000000a6 <setup>:
  a6:	84 e0       	ldi	r24, 0x04	; 4
  a8:	8a b9       	out	0x0a, r24	; 10
  aa:	17 b8       	out	0x07, r1	; 7
  ac:	8f ef       	ldi	r24, 0xFF	; 255
  ae:	88 b9       	out	0x08, r24	; 8
  b0:	8e e0       	ldi	r24, 0x0E	; 14
  b2:	80 93 c2 00 	sts	0x00C2, r24
  b6:	8c e0       	ldi	r24, 0x0C	; 12
  b8:	80 93 c4 00 	sts	0x00C4, r24
  bc:	10 92 c5 00 	sts	0x00C5, r1
  c0:	81 e0       	ldi	r24, 0x01	; 1
  c2:	80 93 6e 00 	sts	0x006E, r24
  c6:	80 93 70 00 	sts	0x0070, r24
  ca:	10 92 b2 00 	sts	0x00B2, r1
  ce:	83 e0       	ldi	r24, 0x03	; 3
  d0:	80 93 b1 00 	sts	0x00B1, r24
  d4:	78 94       	sei
  d6:	08 95       	ret

000000d8 <encoder_enable>:
  d8:	81 11       	cpse	r24, r1
  da:	03 c0       	rjmp	.+6      	; 0xe2 <encoder_enable+0xa>
  dc:	10 92 00 01 	sts	0x0100, r1
  e0:	08 95       	ret
  e2:	81 e0       	ldi	r24, 0x01	; 1
  e4:	80 93 00 01 	sts	0x0100, r24
  e8:	08 95       	ret

000000ea <encoder_scan>:
  ea:	86 b1       	in	r24, 0x06	; 6
  ec:	86 70       	andi	r24, 0x06	; 6
  ee:	90 e0       	ldi	r25, 0x00	; 0
  f0:	95 95       	asr	r25
  f2:	87 95       	ror	r24
  f4:	28 2f       	mov	r18, r24
  f6:	30 91 03 01 	lds	r19, 0x0103
  fa:	31 30       	cpi	r19, 0x01	; 1
  fc:	e9 f0       	breq	.+58     	; 0x138 <encoder_scan+0x4e>
  fe:	08 f1       	brcs	.+66     	; 0x142 <encoder_scan+0x58>
 100:	32 30       	cpi	r19, 0x02	; 2
 102:	39 f0       	breq	.+14     	; 0x112 <encoder_scan+0x28>
 104:	33 30       	cpi	r19, 0x03	; 3
 106:	71 f5       	brne	.+92     	; 0x164 <encoder_scan+0x7a>
 108:	81 30       	cpi	r24, 0x01	; 1
 10a:	e9 f0       	breq	.+58     	; 0x146 <encoder_scan+0x5c>
 10c:	82 30       	cpi	r24, 0x02	; 2
 10e:	51 f5       	brne	.+84     	; 0x164 <encoder_scan+0x7a>
 110:	22 c0       	rjmp	.+68     	; 0x156 <encoder_scan+0x6c>
 112:	83 30       	cpi	r24, 0x03	; 3
 114:	39 f4       	brne	.+14     	; 0x124 <encoder_scan+0x3a>
 116:	30 91 05 01 	lds	r19, 0x0105
 11a:	3f 3f       	cpi	r19, 0xFF	; 255
 11c:	19 f0       	breq	.+6      	; 0x124 <encoder_scan+0x3a>
 11e:	3f 5f       	subi	r19, 0xFF	; 255
 120:	30 93 05 01 	sts	0x0105, r19
 124:	30 91 05 01 	lds	r19, 0x0105
 128:	21 11       	cpse	r18, r1
 12a:	1c c0       	rjmp	.+56     	; 0x164 <encoder_scan+0x7a>
 12c:	34 31       	cpi	r19, 0x14	; 20
 12e:	d1 f0       	breq	.+52     	; 0x164 <encoder_scan+0x7a>
 130:	31 50       	subi	r19, 0x01	; 1
 132:	30 93 05 01 	sts	0x0105, r19
 136:	16 c0       	rjmp	.+44     	; 0x164 <encoder_scan+0x7a>
 138:	88 23       	and	r24, r24
 13a:	29 f0       	breq	.+10     	; 0x146 <encoder_scan+0x5c>
 13c:	83 30       	cpi	r24, 0x03	; 3
 13e:	59 f0       	breq	.+22     	; 0x156 <encoder_scan+0x6c>
 140:	11 c0       	rjmp	.+34     	; 0x164 <encoder_scan+0x7a>
 142:	82 30       	cpi	r24, 0x02	; 2
 144:	31 f4       	brne	.+12     	; 0x152 <encoder_scan+0x68>
 146:	20 91 05 01 	lds	r18, 0x0105
 14a:	2f 3f       	cpi	r18, 0xFF	; 255
 14c:	59 f0       	breq	.+22     	; 0x164 <encoder_scan+0x7a>
 14e:	2f 5f       	subi	r18, 0xFF	; 255
 150:	07 c0       	rjmp	.+14     	; 0x160 <encoder_scan+0x76>
 152:	81 30       	cpi	r24, 0x01	; 1
 154:	39 f4       	brne	.+14     	; 0x164 <encoder_scan+0x7a>
 156:	20 91 05 01 	lds	r18, 0x0105
 15a:	24 31       	cpi	r18, 0x14	; 20
 15c:	19 f0       	breq	.+6      	; 0x164 <encoder_scan+0x7a>
 15e:	21 50       	subi	r18, 0x01	; 1
 160:	20 93 05 01 	sts	0x0105, r18
 164:	26 b1       	in	r18, 0x06	; 6
 166:	21 70       	andi	r18, 0x01	; 1
 168:	30 91 02 01 	lds	r19, 0x0102
 16c:	31 30       	cpi	r19, 0x01	; 1
 16e:	41 f4       	brne	.+16     	; 0x180 <encoder_scan+0x96>
 170:	21 11       	cpse	r18, r1
 172:	06 c0       	rjmp	.+12     	; 0x180 <encoder_scan+0x96>
 174:	40 91 06 01 	lds	r20, 0x0106
 178:	41 11       	cpse	r20, r1
 17a:	30 e0       	ldi	r19, 0x00	; 0
 17c:	30 93 06 01 	sts	0x0106, r19
 180:	80 93 03 01 	sts	0x0103, r24
 184:	20 93 02 01 	sts	0x0102, r18
 188:	08 95       	ret

0000018a <__vector_16>:
 18a:	1f 92       	push	r1
 18c:	0f 92       	push	r0
 18e:	0f b6       	in	r0, 0x3f	; 63
 190:	0f 92       	push	r0
 192:	11 24       	eor	r1, r1
 194:	8f 93       	push	r24
 196:	81 e0       	ldi	r24, 0x01	; 1
 198:	80 93 04 01 	sts	0x0104, r24
 19c:	8f 91       	pop	r24
 19e:	0f 90       	pop	r0
 1a0:	0f be       	out	0x3f, r0	; 63
 1a2:	0f 90       	pop	r0
 1a4:	1f 90       	pop	r1
 1a6:	18 95       	reti

000001a8 <__vector_9>:
 1a8:	1f 92       	push	r1
 1aa:	0f 92       	push	r0
 1ac:	0f b6       	in	r0, 0x3f	; 63
 1ae:	0f 92       	push	r0
 1b0:	11 24       	eor	r1, r1
 1b2:	2f 93       	push	r18
 1b4:	3f 93       	push	r19
 1b6:	4f 93       	push	r20
 1b8:	5f 93       	push	r21
 1ba:	6f 93       	push	r22
 1bc:	7f 93       	push	r23
 1be:	8f 93       	push	r24
 1c0:	9f 93       	push	r25
 1c2:	af 93       	push	r26
 1c4:	bf 93       	push	r27
 1c6:	ef 93       	push	r30
 1c8:	ff 93       	push	r31
 1ca:	80 91 00 01 	lds	r24, 0x0100
 1ce:	81 11       	cpse	r24, r1
 1d0:	0e 94 75 00 	call	0xea	; 0xea <encoder_scan>
 1d4:	ff 91       	pop	r31
 1d6:	ef 91       	pop	r30
 1d8:	bf 91       	pop	r27
 1da:	af 91       	pop	r26
 1dc:	9f 91       	pop	r25
 1de:	8f 91       	pop	r24
 1e0:	7f 91       	pop	r23
 1e2:	6f 91       	pop	r22
 1e4:	5f 91       	pop	r21
 1e6:	4f 91       	pop	r20
 1e8:	3f 91       	pop	r19
 1ea:	2f 91       	pop	r18
 1ec:	0f 90       	pop	r0
 1ee:	0f be       	out	0x3f, r0	; 63
 1f0:	0f 90       	pop	r0
 1f2:	1f 90       	pop	r1
 1f4:	18 95       	reti

000001f6 <checksum>:
 1f6:	20 91 08 01 	lds	r18, 0x0108
 1fa:	80 91 07 01 	lds	r24, 0x0107
 1fe:	90 e0       	ldi	r25, 0x00	; 0
 200:	82 0f       	add	r24, r18
 202:	91 1d       	adc	r25, r1
 204:	20 91 09 01 	lds	r18, 0x0109
 208:	82 0f       	add	r24, r18
 20a:	91 1d       	adc	r25, r1
 20c:	90 91 0a 01 	lds	r25, 0x010A
 210:	89 0f       	add	r24, r25
 212:	08 95       	ret

00000214 <receive_packet>:
 214:	5a 98       	cbi	0x0b, 2	; 11
 216:	82 e0       	ldi	r24, 0x02	; 2
 218:	8a 95       	dec	r24
 21a:	f1 f7       	brne	.-4      	; 0x218 <receive_packet+0x4>
 21c:	00 c0       	rjmp	.+0      	; 0x21e <receive_packet+0xa>
 21e:	80 e1       	ldi	r24, 0x10	; 16
 220:	80 93 c1 00 	sts	0x00C1, r24
 224:	80 91 c0 00 	lds	r24, 0x00C0
 228:	87 ff       	sbrs	r24, 7
 22a:	fc cf       	rjmp	.-8      	; 0x224 <receive_packet+0x10>
 22c:	80 91 c6 00 	lds	r24, 0x00C6
 230:	80 93 07 01 	sts	0x0107, r24
 234:	10 92 00 01 	sts	0x0100, r1
 238:	10 92 04 01 	sts	0x0104, r1
 23c:	16 bc       	out	0x26, r1	; 38
 23e:	85 e0       	ldi	r24, 0x05	; 5
 240:	85 bd       	out	0x25, r24	; 37
 242:	90 91 04 01 	lds	r25, 0x0104
 246:	81 e0       	ldi	r24, 0x01	; 1
 248:	20 91 c0 00 	lds	r18, 0x00C0
 24c:	27 fd       	sbrc	r18, 7
 24e:	11 c0       	rjmp	.+34     	; 0x272 <receive_packet+0x5e>
 250:	91 30       	cpi	r25, 0x01	; 1
 252:	d1 f7       	brne	.-12     	; 0x248 <receive_packet+0x34>
 254:	15 bc       	out	0x25, r1	; 37
 256:	90 93 00 01 	sts	0x0100, r25
 25a:	8f ef       	ldi	r24, 0xFF	; 255
 25c:	80 93 07 01 	sts	0x0107, r24
 260:	80 93 08 01 	sts	0x0108, r24
 264:	80 93 09 01 	sts	0x0109, r24
 268:	80 93 0a 01 	sts	0x010A, r24
 26c:	80 93 0b 01 	sts	0x010B, r24
 270:	1f c0       	rjmp	.+62     	; 0x2b0 <receive_packet+0x9c>
 272:	20 91 c6 00 	lds	r18, 0x00C6
 276:	e8 2f       	mov	r30, r24
 278:	f0 e0       	ldi	r31, 0x00	; 0
 27a:	e9 5f       	subi	r30, 0xF9	; 249
 27c:	fe 4f       	sbci	r31, 0xFE	; 254
 27e:	20 83       	st	Z, r18
 280:	8f 5f       	subi	r24, 0xFF	; 255
 282:	85 30       	cpi	r24, 0x05	; 5
 284:	09 f7       	brne	.-62     	; 0x248 <receive_packet+0x34>
 286:	15 bc       	out	0x25, r1	; 37
 288:	81 e0       	ldi	r24, 0x01	; 1
 28a:	80 93 00 01 	sts	0x0100, r24
 28e:	10 92 c1 00 	sts	0x00C1, r1
 292:	0e 94 fb 00 	call	0x1f6	; 0x1f6 <checksum>
 296:	90 91 0b 01 	lds	r25, 0x010B
 29a:	98 13       	cpse	r25, r24
 29c:	09 c0       	rjmp	.+18     	; 0x2b0 <receive_packet+0x9c>
 29e:	81 e0       	ldi	r24, 0x01	; 1
 2a0:	20 91 07 01 	lds	r18, 0x0107
 2a4:	90 91 01 01 	lds	r25, 0x0101
 2a8:	29 13       	cpse	r18, r25
 2aa:	80 e0       	ldi	r24, 0x00	; 0
 2ac:	81 95       	neg	r24
 2ae:	08 95       	ret
 2b0:	80 e0       	ldi	r24, 0x00	; 0
 2b2:	08 95       	ret

000002b4 <send_packet>:
 2b4:	0e 94 fb 00 	call	0x1f6	; 0x1f6 <checksum>
 2b8:	80 93 0b 01 	sts	0x010B, r24
 2bc:	5a 9a       	sbi	0x0b, 2	; 11
 2be:	8f ec       	ldi	r24, 0xCF	; 207
 2c0:	97 e0       	ldi	r25, 0x07	; 7
 2c2:	01 97       	sbiw	r24, 0x01	; 1
 2c4:	f1 f7       	brne	.-4      	; 0x2c2 <send_packet+0xe>
 2c6:	00 c0       	rjmp	.+0      	; 0x2c8 <send_packet+0x14>
 2c8:	00 00       	nop
 2ca:	88 e0       	ldi	r24, 0x08	; 8
 2cc:	80 93 c1 00 	sts	0x00C1, r24
 2d0:	10 92 00 01 	sts	0x0100, r1
 2d4:	e7 e0       	ldi	r30, 0x07	; 7
 2d6:	f1 e0       	ldi	r31, 0x01	; 1
 2d8:	80 91 c0 00 	lds	r24, 0x00C0
 2dc:	85 ff       	sbrs	r24, 5
 2de:	fc cf       	rjmp	.-8      	; 0x2d8 <send_packet+0x24>
 2e0:	81 91       	ld	r24, Z+
 2e2:	80 93 c6 00 	sts	0x00C6, r24
 2e6:	91 e0       	ldi	r25, 0x01	; 1
 2e8:	ec 30       	cpi	r30, 0x0C	; 12
 2ea:	f9 07       	cpc	r31, r25
 2ec:	a9 f7       	brne	.-22     	; 0x2d8 <send_packet+0x24>
 2ee:	81 e0       	ldi	r24, 0x01	; 1
 2f0:	80 93 00 01 	sts	0x0100, r24
 2f4:	10 92 c1 00 	sts	0x00C1, r1
 2f8:	08 95       	ret

000002fa <send_registers>:
 2fa:	81 e0       	ldi	r24, 0x01	; 1
 2fc:	80 93 07 01 	sts	0x0107, r24
 300:	82 e3       	ldi	r24, 0x32	; 50
 302:	80 93 08 01 	sts	0x0108, r24
 306:	80 91 05 01 	lds	r24, 0x0105
 30a:	80 93 09 01 	sts	0x0109, r24
 30e:	80 91 06 01 	lds	r24, 0x0106
 312:	80 93 0a 01 	sts	0x010A, r24
 316:	0c 94 5a 01 	jmp	0x2b4	; 0x2b4 <send_packet>

0000031a <process_packet>:
 31a:	80 91 08 01 	lds	r24, 0x0108
 31e:	84 31       	cpi	r24, 0x14	; 20
 320:	29 f0       	breq	.+10     	; 0x32c <process_packet+0x12>
 322:	8e 31       	cpi	r24, 0x1E	; 30
 324:	81 f0       	breq	.+32     	; 0x346 <process_packet+0x2c>
 326:	8a 30       	cpi	r24, 0x0A	; 10
 328:	a1 f4       	brne	.+40     	; 0x352 <process_packet+0x38>
 32a:	11 c0       	rjmp	.+34     	; 0x34e <process_packet+0x34>
 32c:	90 91 09 01 	lds	r25, 0x0109
 330:	90 93 05 01 	sts	0x0105, r25
 334:	20 91 0a 01 	lds	r18, 0x010A
 338:	20 93 06 01 	sts	0x0106, r18
 33c:	94 31       	cpi	r25, 0x14	; 20
 33e:	38 f4       	brcc	.+14     	; 0x34e <process_packet+0x34>
 340:	80 93 05 01 	sts	0x0105, r24
 344:	04 c0       	rjmp	.+8      	; 0x34e <process_packet+0x34>
 346:	80 91 09 01 	lds	r24, 0x0109
 34a:	80 93 01 01 	sts	0x0101, r24
 34e:	0c 94 7d 01 	jmp	0x2fa	; 0x2fa <send_registers>
 352:	08 95       	ret

00000354 <main>:
 354:	0e 94 53 00 	call	0xa6	; 0xa6 <setup>
 358:	0e 94 0a 01 	call	0x214	; 0x214 <receive_packet>
 35c:	92 e0       	ldi	r25, 0x02	; 2
 35e:	9a 95       	dec	r25
 360:	f1 f7       	brne	.-4      	; 0x35e <main+0xa>
 362:	00 c0       	rjmp	.+0      	; 0x364 <main+0x10>
 364:	81 11       	cpse	r24, r1
 366:	0e 94 8d 01 	call	0x31a	; 0x31a <process_packet>
 36a:	8f ec       	ldi	r24, 0xCF	; 207
 36c:	97 e0       	ldi	r25, 0x07	; 7
 36e:	01 97       	sbiw	r24, 0x01	; 1
 370:	f1 f7       	brne	.-4      	; 0x36e <main+0x1a>
 372:	00 c0       	rjmp	.+0      	; 0x374 <main+0x20>
 374:	00 00       	nop
 376:	f0 cf       	rjmp	.-32     	; 0x358 <main+0x4>

00000378 <_exit>:
 378:	f8 94       	cli

0000037a <__stop_program>:
 37a:	ff cf       	rjmp	.-2      	; 0x37a <__stop_program>
